target datalayout = "e-m:e-p270:32:32-p271:32:32-p272:64:64-i64:64-i128:128-f80:128-n8:16:32:64-S128"
target triple = "x86_64-pc-linux-gnu"

%struct._GtkTreeIter = type { i32, ptr, ptr, ptr }
%struct.display_data = type { i64, i32, ptr, i8, i32, ptr, ptr, ptr, ptr, ptr, ptr, ptr, ptr }
%struct.treedata_t = type { %struct._GtkTreeIter, ptr, ptr }

@.str.3 = private unnamed_addr constant [9 x i8] c"common.c\00", align 1
@.str.8 = private unnamed_addr constant [19 x i8] c"button-press-event\00", align 1
@.str.9 = private unnamed_addr constant [21 x i8] c"button-release-event\00", align 1
@__func__.make_options_menu = private unnamed_addr constant [18 x i8] c"make_options_menu\00", align 1
@.str.11 = private unnamed_addr constant [42 x i8] c"make menus error getting iter from model\0A\00", align 1
@global_row_count = external global i32, align 4
@.str.12 = private unnamed_addr constant [9 x i8] c"activate\00", align 1

; Function Attrs: nounwind uwtable
define dso_local void @make_options_menu(ptr noundef %0, ptr noundef %1, ptr noundef %2, ptr noundef %3) #0 {
  %5 = alloca ptr, align 8
  %6 = alloca ptr, align 8
  %7 = alloca ptr, align 8
  %8 = alloca ptr, align 8
  %9 = alloca ptr, align 8
  %10 = alloca ptr, align 8
  %11 = alloca i32, align 4
  store ptr %0, ptr %5, align 8
  store ptr %1, ptr %6, align 8
  store ptr %2, ptr %7, align 8
  store ptr %3, ptr %8, align 8
  call void @llvm.lifetime.start.p0(i64 8, ptr %9) #11
  store ptr null, ptr %9, align 8
  call void @llvm.lifetime.start.p0(i64 8, ptr %10) #11
  %12 = call ptr @slurm_xcalloc(i64 noundef 1, i64 noundef 48, i1 noundef zeroext true, i1 noundef zeroext false, ptr noundef @.str.3, i32 noundef 838, ptr noundef @__func__.make_options_menu)
  store ptr %12, ptr %10, align 8
  %13 = load ptr, ptr %5, align 8
  %14 = call ptr @gtk_tree_view_get_model(ptr noundef %13)
  %15 = load ptr, ptr %10, align 8
  %16 = getelementptr inbounds nuw %struct.treedata_t, ptr %15, i32 0, i32 1
  store ptr %14, ptr %16, align 8
  %17 = load ptr, ptr %5, align 8
  %18 = load ptr, ptr %10, align 8
  %19 = getelementptr inbounds nuw %struct.treedata_t, ptr %18, i32 0, i32 2
  store ptr %17, ptr %19, align 8
  %20 = load ptr, ptr %7, align 8
  %21 = call ptr @g_type_check_instance_cast(ptr noundef %20, i64 noundef 80)
  %22 = call i64 @g_signal_connect_data(ptr noundef %21, ptr noundef @.str.8, ptr noundef @_menu_button_pressed, ptr noundef null, ptr noundef null, i32 noundef 0)
  %23 = load ptr, ptr %7, align 8
  %24 = call ptr @g_type_check_instance_cast(ptr noundef %23, i64 noundef 80)
  %25 = call i64 @g_signal_connect_data(ptr noundef %24, ptr noundef @.str.9, ptr noundef @_menu_button_released, ptr noundef null, ptr noundef null, i32 noundef 0)
  %26 = load ptr, ptr %10, align 8
  %27 = getelementptr inbounds nuw %struct.treedata_t, ptr %26, i32 0, i32 1
  %28 = load ptr, ptr %27, align 8
  %29 = load ptr, ptr %10, align 8
  %30 = getelementptr inbounds nuw %struct.treedata_t, ptr %29, i32 0, i32 0
  %31 = load ptr, ptr %6, align 8
  %32 = call i32 @gtk_tree_model_get_iter(ptr noundef %28, ptr noundef %30, ptr noundef %31)
  %33 = icmp ne i32 %32, 0
  br i1 %33, label %39, label %34

34:                                               ; preds = %4
  br label %35

35:                                               ; preds = %34
  call void (ptr, i32, ptr, ...) @g_log(ptr noundef null, i32 noundef 4, ptr noundef @.str.11)
  br label %36

36:                                               ; preds = %36, %35
  br label %36, !llvm.loop !28

37:                                               ; No predecessors!
  br label %38

38:                                               ; preds = %37
  store i32 1, ptr %11, align 4
  br label %83

39:                                               ; preds = %4
  %40 = load ptr, ptr %5, align 8
  %41 = call ptr @gtk_tree_view_get_selection(ptr noundef %40)
  %42 = call i32 @gtk_tree_selection_count_selected_rows(ptr noundef %41)
  store i32 %42, ptr @global_row_count, align 4
  %43 = load ptr, ptr %8, align 8
  %44 = getelementptr inbounds nuw %struct.display_data, ptr %43, i32 0, i32 11
  %45 = load ptr, ptr %44, align 8
  %46 = icmp ne ptr %45, null
  br i1 %46, label %47, label %50

47:                                               ; preds = %39
  %48 = load ptr, ptr %8, align 8
  %49 = getelementptr inbounds nuw %struct.display_data, ptr %48, i32 0, i32 11
  call void @slurm_xfree(ptr noundef %49)
  br label %50

50:                                               ; preds = %47, %39
  br label %51

51:                                               ; preds = %67, %66, %50
  %52 = load ptr, ptr %8, align 8
  %53 = getelementptr inbounds nuw %struct.display_data, ptr %52, i32 1
  store ptr %53, ptr %8, align 8
  %54 = icmp ne ptr %52, null
  br i1 %54, label %55, label %82

55:                                               ; preds = %51
  %56 = load ptr, ptr %8, align 8
  %57 = getelementptr inbounds nuw %struct.display_data, ptr %56, i32 0, i32 1
  %58 = load i32, ptr %57, align 8
  %59 = icmp eq i32 %58, -1
  br i1 %59, label %60, label %61

60:                                               ; preds = %55
  br label %82

61:                                               ; preds = %55
  %62 = load ptr, ptr %8, align 8
  %63 = getelementptr inbounds nuw %struct.display_data, ptr %62, i32 0, i32 2
  %64 = load ptr, ptr %63, align 8
  %65 = icmp ne ptr %64, null
  br i1 %65, label %67, label %66

66:                                               ; preds = %61
  br label %51, !llvm.loop !29

67:                                               ; preds = %61
  %68 = load ptr, ptr %10, align 8
  %69 = load ptr, ptr %8, align 8
  %70 = getelementptr inbounds nuw %struct.display_data, ptr %69, i32 0, i32 11
  store ptr %68, ptr %70, align 8
  %71 = load ptr, ptr %8, align 8
  %72 = getelementptr inbounds nuw %struct.display_data, ptr %71, i32 0, i32 2
  %73 = load ptr, ptr %72, align 8
  %74 = call ptr @gtk_menu_item_new_with_label(ptr noundef %73)
  store ptr %74, ptr %9, align 8
  %75 = load ptr, ptr %9, align 8
  %76 = load ptr, ptr %8, align 8
  %77 = call i64 @g_signal_connect_data(ptr noundef %75, ptr noundef @.str.12, ptr noundef @_selected_page, ptr noundef %76, ptr noundef null, i32 noundef 0)
  %78 = load ptr, ptr %7, align 8
  %79 = call i64 @gtk_menu_shell_get_type() #12
  %80 = call ptr @g_type_check_instance_cast(ptr noundef %78, i64 noundef %79)
  %81 = load ptr, ptr %9, align 8
  call void @gtk_menu_shell_append(ptr noundef %80, ptr noundef %81)
  br label %51, !llvm.loop !29

82:                                               ; preds = %60, %51
  store i32 0, ptr %11, align 4
  br label %83

83:                                               ; preds = %82, %38
  call void @llvm.lifetime.end.p0(i64 8, ptr %10) #11
  call void @llvm.lifetime.end.p0(i64 8, ptr %9) #11
  %84 = load i32, ptr %11, align 4
  switch i32 %84, label %86 [
    i32 0, label %85
    i32 1, label %85
  ]

85:                                               ; preds = %83, %83
  ret void

86:                                               ; preds = %83
  unreachable
}