; Function Attrs: nounwind uwtable
define dso_local void @make_options_menu(ptr noundef %0, ptr noundef %1, ptr noundef %2, ptr noundef %3) local_unnamed_addr #2 {
  %5 = tail call ptr @slurm_xcalloc(i64 noundef 1, i64 noundef 48, i1 noundef zeroext true, i1 noundef zeroext false, ptr noundef nonnull @.str.3, i32 noundef 838, ptr noundef nonnull @__func__.make_options_menu) #16
  %6 = tail call ptr @gtk_tree_view_get_model(ptr noundef %0) #16
  %7 = getelementptr inbounds nuw i8, ptr %5, i64 32
  store ptr %6, ptr %7, align 8
  %8 = getelementptr inbounds nuw i8, ptr %5, i64 40
  store ptr %0, ptr %8, align 8
  %9 = tail call ptr @g_type_check_instance_cast(ptr noundef %2, i64 noundef 80) #16
  %10 = tail call i64 @g_signal_connect_data(ptr noundef %9, ptr noundef nonnull @.str.8, ptr noundef nonnull @_menu_button_pressed, ptr noundef null, ptr noundef null, i32 noundef 0) #16
  %11 = tail call ptr @g_type_check_instance_cast(ptr noundef %2, i64 noundef 80) #16
  %12 = tail call i64 @g_signal_connect_data(ptr noundef %11, ptr noundef nonnull @.str.9, ptr noundef nonnull @_menu_button_released, ptr noundef null, ptr noundef null, i32 noundef 0) #16
  %13 = load ptr, ptr %7, align 8
  %14 = tail call i32 @gtk_tree_model_get_iter(ptr noundef %13, ptr noundef %5, ptr noundef %1) #16
  %.not = icmp eq i32 %14, 0
  br i1 %.not, label %15, label %17

15:                                               ; preds = %4
  tail call void (ptr, i32, ptr, ...) @g_log(ptr noundef null, i32 noundef 4, ptr noundef nonnull @.str.11) #16
  br label %16

16:                                               ; preds = %16, %15
  br label %16, !llvm.loop !26

17:                                               ; preds = %4
  %18 = tail call ptr @gtk_tree_view_get_selection(ptr noundef %0) #16
  %19 = tail call i32 @gtk_tree_selection_count_selected_rows(ptr noundef %18) #16
  store i32 %19, ptr @global_row_count, align 4
  %20 = getelementptr inbounds nuw i8, ptr %3, i64 80
  %21 = load ptr, ptr %20, align 8
  %.not22 = icmp eq ptr %21, null
  br i1 %.not22, label %23, label %22

22:                                               ; preds = %17
  tail call void @slurm_xfree(ptr noundef nonnull %20) #16
  br label %23

23:                                               ; preds = %22, %17
  %24 = getelementptr inbounds nuw i8, ptr %3, i64 104
  %25 = load i32, ptr %24, align 8
  %26 = icmp eq i32 %25, -1
  br i1 %26, label %._crit_edge, label %.lr.ph

.lr.ph:                                           ; preds = %23, %.backedge
  %.025 = phi ptr [ %27, %.backedge ], [ %3, %23 ]
  %27 = getelementptr inbounds nuw i8, ptr %.025, i64 96
  %28 = getelementptr inbounds nuw i8, ptr %.025, i64 112
  %29 = load ptr, ptr %28, align 8
  %.not24 = icmp eq ptr %29, null
  br i1 %.not24, label %.backedge, label %33

.backedge:                                        ; preds = %.lr.ph, %33
  %30 = getelementptr inbounds nuw i8, ptr %.025, i64 200
  %31 = load i32, ptr %30, align 8
  %32 = icmp eq i32 %31, -1
  br i1 %32, label %._crit_edge, label %.lr.ph, !llvm.loop !27

33:                                               ; preds = %.lr.ph
  %34 = getelementptr inbounds nuw i8, ptr %.025, i64 176
  store ptr %5, ptr %34, align 8
  %35 = tail call ptr @gtk_menu_item_new_with_label(ptr noundef nonnull %29) #16
  %36 = tail call i64 @g_signal_connect_data(ptr noundef %35, ptr noundef nonnull @.str.12, ptr noundef nonnull @_selected_page, ptr noundef nonnull %27, ptr noundef null, i32 noundef 0) #16
  %37 = tail call i64 @gtk_menu_shell_get_type() #17
  %38 = tail call ptr @g_type_check_instance_cast(ptr noundef %2, i64 noundef %37) #16
  tail call void @gtk_menu_shell_append(ptr noundef %38, ptr noundef %35) #16
  br label %.backedge

._crit_edge:                                      ; preds = %.backedge, %23
  ret void
}